; Function Attrs: mustprogress uwtable
define hidden noundef i32 @_ZN9format_ns20get_format_family_idER11ast_manager(ptr noundef nonnull align 8 dereferenceable(976) %0) local_unnamed_addr #3 personality ptr @__gxx_personality_v0 {
  %2 = alloca %class.symbol, align 8
  call void @llvm.lifetime.start.p0(i64 8, ptr nonnull %2) #20
  call void @_ZN6symbolC1EPKc(ptr noundef nonnull align 8 dereferenceable(8) %2, ptr noundef nonnull @.str)
  %3 = getelementptr inbounds nuw i8, ptr %0, i64 928
  %4 = load ptr, ptr %3, align 8, !tbaa !3
  %5 = icmp eq ptr %4, null
  %6 = select i1 %5, ptr %0, ptr %4
  %7 = getelementptr inbounds nuw i8, ptr %6, i64 560
  %8 = call noundef zeroext i1 @_ZNK14family_manager10has_familyERK6symbol(ptr noundef nonnull align 8 dereferenceable(56) %7, ptr noundef nonnull align 8 dereferenceable(8) %2)
  br i1 %8, label %_ZNK11ast_manager10has_pluginERK6symbol.exit, label %_ZNK11ast_manager10has_pluginERK6symbol.exit.thread

_ZNK11ast_manager10has_pluginERK6symbol.exit:     ; preds = %1
  %9 = call noundef i32 @_ZNK14family_manager13get_family_idERK6symbol(ptr noundef nonnull align 8 dereferenceable(56) %7, ptr noundef nonnull align 8 dereferenceable(8) %2)
  %10 = call noundef ptr @_ZNK11ast_manager10get_pluginEi(ptr noundef nonnull align 8 dereferenceable(976) %6, i32 noundef %9)
  %.not = icmp eq ptr %10, null
  br i1 %.not, label %_ZNK11ast_manager10has_pluginERK6symbol.exit.thread, label %25

_ZNK11ast_manager10has_pluginERK6symbol.exit.thread: ; preds = %1, %_ZNK11ast_manager10has_pluginERK6symbol.exit
  %11 = load ptr, ptr %3, align 8, !tbaa !3
  %12 = icmp eq ptr %11, null
  %13 = select i1 %12, ptr %0, ptr %11
  %14 = call noalias noundef ptr @_ZN6memory8allocateEm(i64 noundef 88)
  %15 = getelementptr inbounds nuw i8, ptr %14, i64 8
  store ptr null, ptr %15, align 8, !tbaa !75
  %16 = getelementptr inbounds nuw i8, ptr %14, i64 16
  store i32 -1, ptr %16, align 8, !tbaa !77
  store ptr getelementptr inbounds nuw inrange(-16, 168) (i8, ptr @_ZTVN9format_ns18format_decl_pluginE, i64 16), ptr %14, align 8, !tbaa !78
  %17 = getelementptr inbounds nuw i8, ptr %14, i64 24
  store ptr null, ptr %17, align 8, !tbaa !80
  %18 = getelementptr inbounds nuw i8, ptr %14, i64 32
  call void @_ZN6symbolC1EPKc(ptr noundef nonnull align 8 dereferenceable(8) %18, ptr noundef nonnull @.str.1)
  %19 = getelementptr inbounds nuw i8, ptr %14, i64 40
  call void @_ZN6symbolC1EPKc(ptr noundef nonnull align 8 dereferenceable(8) %19, ptr noundef nonnull @.str.2)
  %20 = getelementptr inbounds nuw i8, ptr %14, i64 48
  call void @_ZN6symbolC1EPKc(ptr noundef nonnull align 8 dereferenceable(8) %20, ptr noundef nonnull @.str.3)
  %21 = getelementptr inbounds nuw i8, ptr %14, i64 56
  call void @_ZN6symbolC1EPKc(ptr noundef nonnull align 8 dereferenceable(8) %21, ptr noundef nonnull @.str.4)
  %22 = getelementptr inbounds nuw i8, ptr %14, i64 64
  call void @_ZN6symbolC1EPKc(ptr noundef nonnull align 8 dereferenceable(8) %22, ptr noundef nonnull @.str.5)
  %23 = getelementptr inbounds nuw i8, ptr %14, i64 72
  call void @_ZN6symbolC1EPKc(ptr noundef nonnull align 8 dereferenceable(8) %23, ptr noundef nonnull @.str.6)
  %24 = getelementptr inbounds nuw i8, ptr %14, i64 80
  call void @_ZN6symbolC1EPKc(ptr noundef nonnull align 8 dereferenceable(8) %24, ptr noundef nonnull @.str.7)
  call void @_ZN11ast_manager15register_pluginERK6symbolP11decl_plugin(ptr noundef nonnull align 8 dereferenceable(976) %13, ptr noundef nonnull align 8 dereferenceable(8) %2, ptr noundef nonnull %14)
  br label %25

25:                                               ; preds = %_ZNK11ast_manager10has_pluginERK6symbol.exit.thread, %_ZNK11ast_manager10has_pluginERK6symbol.exit
  %26 = load ptr, ptr %3, align 8, !tbaa !3
  %27 = icmp eq ptr %26, null
  %28 = select i1 %27, ptr %0, ptr %26
  %29 = getelementptr inbounds nuw i8, ptr %28, i64 560
  %30 = call noundef i32 @_ZN14family_manager12mk_family_idERK6symbol(ptr noundef nonnull align 8 dereferenceable(56) %29, ptr noundef nonnull align 8 dereferenceable(8) %2)
  call void @llvm.lifetime.end.p0(i64 8, ptr nonnull %2) #20
  ret i32 %30
}